target datalayout = "e-m:e-p270:32:32-p271:32:32-p272:64:64-i64:64-i128:128-f80:128-n8:16:32:64-S128"
target triple = "x86_64-unknown-linux-gnu"

%"struct.facebook::velox::type::Parser::by_state" = type { i8 }

@_ZN8facebook5velox4type6Parser7yystos_E = constant [71 x i8] c"\00\01\06\07\08\09\0A\0B\0C\0D\10\11\12\13\14\15\16\19\1A\1B\1C\03\03\03\03\03\0B\12\15\16\03\0B\13\14\00\0B\13\14\13\14\11\13\18\0B\13\17\0E\0E\04\04\05\05\04\05\04\05\05\04\13\14\13\14\11\13\13\0E\04\04\04\04\04", align 16

; Function Attrs: mustprogress nounwind uwtable
define noundef i32 @_ZNK8facebook5velox4type6Parser8by_state4kindEv(ptr noundef nonnull align 1 dereferenceable(1) %this) #4 align 2 {
entry:
  %retval = alloca i32, align 4
  %this.addr = alloca ptr, align 8
  store ptr %this, ptr %this.addr, align 8
  %this1 = load ptr, ptr %this.addr, align 8
  %state = getelementptr inbounds %"struct.facebook::velox::type::Parser::by_state", ptr %this1, i32 0, i32 0
  %0 = load i8, ptr %state, align 1
  %conv = sext i8 %0 to i32
  %cmp = icmp eq i32 %conv, 0
  br i1 %cmp, label %if.then, label %if.else

if.then:                                          ; preds = %entry
  store i32 -2, ptr %retval, align 4
  br label %return

if.else:                                          ; preds = %entry
  %state2 = getelementptr inbounds %"struct.facebook::velox::type::Parser::by_state", ptr %this1, i32 0, i32 0
  %1 = load i8, ptr %state2, align 1
  %conv3 = sext i8 %1 to i32
  %idxprom = sext i32 %conv3 to i64
  %arrayidx = getelementptr inbounds [0 x i8], ptr @_ZN8facebook5velox4type6Parser7yystos_E, i64 0, i64 %idxprom
  %2 = load i8, ptr %arrayidx, align 1
  %conv4 = sext i8 %2 to i32
  store i32 %conv4, ptr %retval, align 4
  br label %return

return:                                           ; preds = %if.else, %if.then
  %3 = load i32, ptr %retval, align 4
  ret i32 %3
}